; Function Attrs: nounwind uwtable
define hidden noundef i32 @WebPRescalerInit(ptr nocapture noundef writeonly %0, i32 noundef %1, i32 noundef %2, ptr noundef %3, i32 noundef %4, i32 noundef %5, i32 noundef %6, i32 noundef %7, ptr noundef %8) local_unnamed_addr #0 {
  %10 = icmp slt i32 %1, %4
  %11 = zext i1 %10 to i32
  store i32 %11, ptr %0, align 8
  %12 = icmp slt i32 %2, %5
  %13 = zext i1 %12 to i32
  %14 = getelementptr inbounds i8, ptr %0, i64 4
  store i32 %13, ptr %14, align 4
  %15 = getelementptr inbounds i8, ptr %0, i64 44
  store i32 %1, ptr %15, align 4
  %16 = getelementptr inbounds i8, ptr %0, i64 48
  store i32 %2, ptr %16, align 8
  %17 = getelementptr inbounds i8, ptr %0, i64 52
  store i32 %4, ptr %17, align 4
  %18 = getelementptr inbounds i8, ptr %0, i64 56
  store i32 %5, ptr %18, align 8
  %19 = getelementptr inbounds i8, ptr %0, i64 60
  store i32 0, ptr %19, align 4
  %20 = getelementptr inbounds i8, ptr %0, i64 64
  store i32 0, ptr %20, align 8
  %21 = getelementptr inbounds i8, ptr %0, i64 72
  store ptr %3, ptr %21, align 8
  %22 = getelementptr inbounds i8, ptr %0, i64 80
  store i32 %6, ptr %22, align 8
  %23 = getelementptr inbounds i8, ptr %0, i64 8
  store i32 %7, ptr %23, align 8
  %24 = add nsw i32 %4, -1
  %25 = select i1 %10, i32 %24, i32 %1
  %26 = getelementptr inbounds i8, ptr %0, i64 36
  store i32 %25, ptr %26, align 4
  %27 = add nsw i32 %1, -1
  %28 = select i1 %10, i32 %27, i32 %4
  %29 = getelementptr inbounds i8, ptr %0, i64 40
  store i32 %28, ptr %29, align 8
  br i1 %10, label %35, label %30

30:                                               ; preds = %9
  %31 = sext i32 %4 to i64
  %32 = udiv i64 4294967296, %31
  %33 = trunc i64 %32 to i32
  %34 = getelementptr inbounds i8, ptr %0, i64 12
  store i32 %33, ptr %34, align 4
  br label %35

35:                                               ; preds = %30, %9
  %36 = sext i1 %12 to i32
  %37 = add nsw i32 %36, %2
  %38 = getelementptr inbounds i8, ptr %0, i64 28
  store i32 %37, ptr %38, align 4
  %39 = add nsw i32 %36, %5
  %40 = getelementptr inbounds i8, ptr %0, i64 32
  store i32 %39, ptr %40, align 8
  %41 = getelementptr inbounds i8, ptr %0, i64 24
  br i1 %12, label %50, label %42

42:                                               ; preds = %35
  store i32 %37, ptr %41, align 8
  %43 = sext i32 %5 to i64
  %44 = shl nsw i64 %43, 32
  %45 = sext i32 %25 to i64
  %46 = sext i32 %37 to i64
  %47 = mul nsw i64 %46, %45
  %48 = udiv i64 %44, %47
  %spec.select85 = tail call i64 @llvm.umin.i64(i64 %48, i64 4294967296)
  %spec.select = trunc i64 %spec.select85 to i32
  %49 = getelementptr inbounds i8, ptr %0, i64 20
  store i32 %spec.select, ptr %49, align 4
  br label %51

50:                                               ; preds = %35
  store i32 %39, ptr %41, align 8
  br label %51

51:                                               ; preds = %50, %42
  %.sink84 = phi i32 [ %25, %50 ], [ %39, %42 ]
  %52 = sext i32 %.sink84 to i64
  %53 = udiv i64 4294967296, %52
  %54 = trunc i64 %53 to i32
  %55 = getelementptr inbounds i8, ptr %0, i64 16
  store i32 %54, ptr %55, align 8
  %56 = sext i32 %4 to i64
  %57 = sext i32 %7 to i64
  %58 = shl nsw i64 %56, 3
  %59 = mul i64 %58, %57
  %60 = getelementptr inbounds i8, ptr %0, i64 88
  store ptr %8, ptr %60, align 8
  %61 = mul nsw i32 %7, %4
  %62 = sext i32 %61 to i64
  %63 = getelementptr inbounds i32, ptr %8, i64 %62
  %64 = getelementptr inbounds i8, ptr %0, i64 96
  store ptr %63, ptr %64, align 8
  tail call void @llvm.memset.p0.i64(ptr align 4 %8, i8 0, i64 %59, i1 false)
  tail call void @WebPRescalerDspInit() #6
  ret i32 1
}